target datalayout = "e-m:e-p270:32:32-p271:32:32-p272:64:64-i64:64-i128:128-f80:128-n8:16:32:64-S128"
target triple = "x86_64-pc-linux-gnu"

%struct.dh_st = type { i32, i32, %struct.ffc_params_st, i32, ptr, ptr, i32, ptr, %struct.CRYPTO_REF_COUNT, %struct.crypto_ex_data_st, ptr, ptr, ptr, ptr, i64 }
%struct.ffc_params_st = type { ptr, ptr, ptr, ptr, ptr, i64, i32, i32, i32, i32, i32, ptr, ptr, i32 }
%struct.CRYPTO_REF_COUNT = type { i32 }
%struct.crypto_ex_data_st = type { ptr, ptr }

@.str = private unnamed_addr constant [32 x i8] c"../openssl/crypto/dh/dh_check.c\00", align 1
@__func__.DH_check = private unnamed_addr constant [9 x i8] c"DH_check\00", align 1

; Function Attrs: nounwind uwtable
define i32 @DH_check(ptr noundef %0, ptr noundef %1) #0 {
  %3 = alloca i32, align 4
  %4 = alloca ptr, align 8
  %5 = alloca ptr, align 8
  %6 = alloca i32, align 4
  %7 = alloca i32, align 4
  %8 = alloca i32, align 4
  %9 = alloca ptr, align 8
  %10 = alloca ptr, align 8
  %11 = alloca ptr, align 8
  %12 = alloca i32, align 4
  %13 = alloca i32, align 4
  store ptr %0, ptr %4, align 8, !tbaa !3
  store ptr %1, ptr %5, align 8, !tbaa !10
  call void @llvm.lifetime.start.p0(i64 4, ptr %6) #3
  store i32 0, ptr %6, align 4, !tbaa !8
  call void @llvm.lifetime.start.p0(i64 4, ptr %7) #3
  call void @llvm.lifetime.start.p0(i64 4, ptr %8) #3
  store i32 0, ptr %8, align 4, !tbaa !8
  call void @llvm.lifetime.start.p0(i64 8, ptr %9) #3
  store ptr null, ptr %9, align 8, !tbaa !14
  call void @llvm.lifetime.start.p0(i64 8, ptr %10) #3
  store ptr null, ptr %10, align 8, !tbaa !12
  call void @llvm.lifetime.start.p0(i64 8, ptr %11) #3
  store ptr null, ptr %11, align 8, !tbaa !12
  call void @llvm.lifetime.start.p0(i64 4, ptr %12) #3
  %14 = load ptr, ptr %4, align 8, !tbaa !3
  %15 = call i32 @DH_get_nid(ptr noundef %14)
  store i32 %15, ptr %12, align 4, !tbaa !8
  %16 = load ptr, ptr %5, align 8, !tbaa !10
  store i32 0, ptr %16, align 4, !tbaa !8
  %17 = load i32, ptr %12, align 4, !tbaa !8
  %18 = icmp ne i32 %17, 0
  br i1 %18, label %19, label %20

19:                                               ; preds = %2
  store i32 1, ptr %3, align 4
  store i32 1, ptr %13, align 4
  br label %245

20:                                               ; preds = %2
  %21 = load ptr, ptr %4, align 8, !tbaa !3
  %22 = getelementptr inbounds nuw %struct.dh_st, ptr %21, i32 0, i32 2
  %23 = getelementptr inbounds nuw %struct.ffc_params_st, ptr %22, i32 0, i32 0
  %24 = load ptr, ptr %23, align 8, !tbaa !28
  %25 = call i32 @BN_num_bits(ptr noundef %24)
  %26 = icmp sgt i32 %25, 32768
  br i1 %26, label %27, label %29

27:                                               ; preds = %20
  call void @ERR_new()
  call void @ERR_set_debug(ptr noundef @.str, i32 noundef 157, ptr noundef @__func__.DH_check)
  call void (i32, i32, ptr, ...) @ERR_set_error(i32 noundef 5, i32 noundef 103, ptr noundef null)
  %28 = load ptr, ptr %5, align 8, !tbaa !10
  store i32 257, ptr %28, align 4, !tbaa !8
  store i32 0, ptr %3, align 4
  store i32 1, ptr %13, align 4
  br label %245

29:                                               ; preds = %20
  %30 = load ptr, ptr %4, align 8, !tbaa !3
  %31 = load ptr, ptr %5, align 8, !tbaa !10
  %32 = call i32 @DH_check_params(ptr noundef %30, ptr noundef %31)
  %33 = icmp ne i32 %32, 0
  br i1 %33, label %35, label %34

34:                                               ; preds = %29
  store i32 0, ptr %3, align 4
  store i32 1, ptr %13, align 4
  br label %245

35:                                               ; preds = %29
  %36 = load ptr, ptr %4, align 8, !tbaa !3
  %37 = getelementptr inbounds nuw %struct.dh_st, ptr %36, i32 0, i32 11
  %38 = load ptr, ptr %37, align 8, !tbaa !16
  %39 = call ptr @BN_CTX_new_ex(ptr noundef %38)
  store ptr %39, ptr %9, align 8, !tbaa !14
  %40 = load ptr, ptr %9, align 8, !tbaa !14
  %41 = icmp eq ptr %40, null
  br i1 %41, label %42, label %43

42:                                               ; preds = %35
  br label %241

43:                                               ; preds = %35
  %44 = load ptr, ptr %9, align 8, !tbaa !14
  call void @BN_CTX_start(ptr noundef %44)
  %45 = load ptr, ptr %9, align 8, !tbaa !14
  %46 = call ptr @BN_CTX_get(ptr noundef %45)
  store ptr %46, ptr %10, align 8, !tbaa !12
  %47 = load ptr, ptr %9, align 8, !tbaa !14
  %48 = call ptr @BN_CTX_get(ptr noundef %47)
  store ptr %48, ptr %11, align 8, !tbaa !12
  %49 = load ptr, ptr %11, align 8, !tbaa !12
  %50 = icmp eq ptr %49, null
  br i1 %50, label %51, label %52

51:                                               ; preds = %43
  br label %241

52:                                               ; preds = %43
  %53 = load ptr, ptr %4, align 8, !tbaa !3
  %54 = getelementptr inbounds nuw %struct.dh_st, ptr %53, i32 0, i32 2
  %55 = getelementptr inbounds nuw %struct.ffc_params_st, ptr %54, i32 0, i32 1
  %56 = load ptr, ptr %55, align 8, !tbaa !30
  %57 = icmp ne ptr %56, null
  br i1 %57, label %58, label %75

58:                                               ; preds = %52
  %59 = load ptr, ptr %4, align 8, !tbaa !3
  %60 = getelementptr inbounds nuw %struct.dh_st, ptr %59, i32 0, i32 2
  %61 = getelementptr inbounds nuw %struct.ffc_params_st, ptr %60, i32 0, i32 0
  %62 = load ptr, ptr %61, align 8, !tbaa !28
  %63 = load ptr, ptr %4, align 8, !tbaa !3
  %64 = getelementptr inbounds nuw %struct.dh_st, ptr %63, i32 0, i32 2
  %65 = getelementptr inbounds nuw %struct.ffc_params_st, ptr %64, i32 0, i32 1
  %66 = load ptr, ptr %65, align 8, !tbaa !30
  %67 = call i32 @BN_ucmp(ptr noundef %62, ptr noundef %66)
  %68 = icmp sgt i32 %67, 0
  br i1 %68, label %69, label %70

69:                                               ; preds = %58
  store i32 1, ptr %8, align 4, !tbaa !8
  br label %74

70:                                               ; preds = %58
  %71 = load ptr, ptr %5, align 8, !tbaa !10
  %72 = load i32, ptr %71, align 4, !tbaa !8
  %73 = or i32 %72, 32
  store i32 %73, ptr %71, align 4, !tbaa !8
  br label %74

74:                                               ; preds = %70, %69
  br label %75

75:                                               ; preds = %74, %52
  %76 = load i32, ptr %8, align 4, !tbaa !8
  %77 = icmp ne i32 %76, 0
  br i1 %77, label %78, label %192

78:                                               ; preds = %75
  %79 = load ptr, ptr %4, align 8, !tbaa !3
  %80 = getelementptr inbounds nuw %struct.dh_st, ptr %79, i32 0, i32 2
  %81 = getelementptr inbounds nuw %struct.ffc_params_st, ptr %80, i32 0, i32 2
  %82 = load ptr, ptr %81, align 8, !tbaa !29
  %83 = call ptr @BN_value_one()
  %84 = call i32 @BN_cmp(ptr noundef %82, ptr noundef %83)
  %85 = icmp sle i32 %84, 0
  br i1 %85, label %86, label %90

86:                                               ; preds = %78
  %87 = load ptr, ptr %5, align 8, !tbaa !10
  %88 = load i32, ptr %87, align 4, !tbaa !8
  %89 = or i32 %88, 8
  store i32 %89, ptr %87, align 4, !tbaa !8
  br label %133

90:                                               ; preds = %78
  %91 = load ptr, ptr %4, align 8, !tbaa !3
  %92 = getelementptr inbounds nuw %struct.dh_st, ptr %91, i32 0, i32 2
  %93 = getelementptr inbounds nuw %struct.ffc_params_st, ptr %92, i32 0, i32 2
  %94 = load ptr, ptr %93, align 8, !tbaa !29
  %95 = load ptr, ptr %4, align 8, !tbaa !3
  %96 = getelementptr inbounds nuw %struct.dh_st, ptr %95, i32 0, i32 2
  %97 = getelementptr inbounds nuw %struct.ffc_params_st, ptr %96, i32 0, i32 0
  %98 = load ptr, ptr %97, align 8, !tbaa !28
  %99 = call i32 @BN_cmp(ptr noundef %94, ptr noundef %98)
  %100 = icmp sge i32 %99, 0
  br i1 %100, label %101, label %105

101:                                              ; preds = %90
  %102 = load ptr, ptr %5, align 8, !tbaa !10
  %103 = load i32, ptr %102, align 4, !tbaa !8
  %104 = or i32 %103, 8
  store i32 %104, ptr %102, align 4, !tbaa !8
  br label %132

105:                                              ; preds = %90
  %106 = load ptr, ptr %10, align 8, !tbaa !12
  %107 = load ptr, ptr %4, align 8, !tbaa !3
  %108 = getelementptr inbounds nuw %struct.dh_st, ptr %107, i32 0, i32 2
  %109 = getelementptr inbounds nuw %struct.ffc_params_st, ptr %108, i32 0, i32 2
  %110 = load ptr, ptr %109, align 8, !tbaa !29
  %111 = load ptr, ptr %4, align 8, !tbaa !3
  %112 = getelementptr inbounds nuw %struct.dh_st, ptr %111, i32 0, i32 2
  %113 = getelementptr inbounds nuw %struct.ffc_params_st, ptr %112, i32 0, i32 1
  %114 = load ptr, ptr %113, align 8, !tbaa !30
  %115 = load ptr, ptr %4, align 8, !tbaa !3
  %116 = getelementptr inbounds nuw %struct.dh_st, ptr %115, i32 0, i32 2
  %117 = getelementptr inbounds nuw %struct.ffc_params_st, ptr %116, i32 0, i32 0
  %118 = load ptr, ptr %117, align 8, !tbaa !28
  %119 = load ptr, ptr %9, align 8, !tbaa !14
  %120 = call i32 @BN_mod_exp(ptr noundef %106, ptr noundef %110, ptr noundef %114, ptr noundef %118, ptr noundef %119)
  %121 = icmp ne i32 %120, 0
  br i1 %121, label %123, label %122

122:                                              ; preds = %105
  br label %241

123:                                              ; preds = %105
  %124 = load ptr, ptr %10, align 8, !tbaa !12
  %125 = call i32 @BN_is_one(ptr noundef %124)
  %126 = icmp ne i32 %125, 0
  br i1 %126, label %131, label %127

127:                                              ; preds = %123
  %128 = load ptr, ptr %5, align 8, !tbaa !10
  %129 = load i32, ptr %128, align 4, !tbaa !8
  %130 = or i32 %129, 8
  store i32 %130, ptr %128, align 4, !tbaa !8
  br label %131

131:                                              ; preds = %127, %123
  br label %132

132:                                              ; preds = %131, %101
  br label %133

133:                                              ; preds = %132, %86
  %134 = load ptr, ptr %4, align 8, !tbaa !3
  %135 = getelementptr inbounds nuw %struct.dh_st, ptr %134, i32 0, i32 2
  %136 = getelementptr inbounds nuw %struct.ffc_params_st, ptr %135, i32 0, i32 1
  %137 = load ptr, ptr %136, align 8, !tbaa !30
  %138 = load ptr, ptr %9, align 8, !tbaa !14
  %139 = call i32 @BN_check_prime(ptr noundef %137, ptr noundef %138, ptr noundef null)
  store i32 %139, ptr %7, align 4, !tbaa !8
  %140 = load i32, ptr %7, align 4, !tbaa !8
  %141 = icmp slt i32 %140, 0
  br i1 %141, label %142, label %143

142:                                              ; preds = %133
  br label %241

143:                                              ; preds = %133
  %144 = load i32, ptr %7, align 4, !tbaa !8
  %145 = icmp ne i32 %144, 0
  br i1 %145, label %150, label %146

146:                                              ; preds = %143
  %147 = load ptr, ptr %5, align 8, !tbaa !10
  %148 = load i32, ptr %147, align 4, !tbaa !8
  %149 = or i32 %148, 16
  store i32 %149, ptr %147, align 4, !tbaa !8
  br label %150

150:                                              ; preds = %146, %143
  %151 = load ptr, ptr %10, align 8, !tbaa !12
  %152 = load ptr, ptr %11, align 8, !tbaa !12
  %153 = load ptr, ptr %4, align 8, !tbaa !3
  %154 = getelementptr inbounds nuw %struct.dh_st, ptr %153, i32 0, i32 2
  %155 = getelementptr inbounds nuw %struct.ffc_params_st, ptr %154, i32 0, i32 0
  %156 = load ptr, ptr %155, align 8, !tbaa !28
  %157 = load ptr, ptr %4, align 8, !tbaa !3
  %158 = getelementptr inbounds nuw %struct.dh_st, ptr %157, i32 0, i32 2
  %159 = getelementptr inbounds nuw %struct.ffc_params_st, ptr %158, i32 0, i32 1
  %160 = load ptr, ptr %159, align 8, !tbaa !30
  %161 = load ptr, ptr %9, align 8, !tbaa !14
  %162 = call i32 @BN_div(ptr noundef %151, ptr noundef %152, ptr noundef %156, ptr noundef %160, ptr noundef %161)
  %163 = icmp ne i32 %162, 0
  br i1 %163, label %165, label %164

164:                                              ; preds = %150
  br label %241

165:                                              ; preds = %150
  %166 = load ptr, ptr %11, align 8, !tbaa !12
  %167 = call i32 @BN_is_one(ptr noundef %166)
  %168 = icmp ne i32 %167, 0
  br i1 %168, label %173, label %169

169:                                              ; preds = %165
  %170 = load ptr, ptr %5, align 8, !tbaa !10
  %171 = load i32, ptr %170, align 4, !tbaa !8
  %172 = or i32 %171, 32
  store i32 %172, ptr %170, align 4, !tbaa !8
  br label %173

173:                                              ; preds = %169, %165
  %174 = load ptr, ptr %4, align 8, !tbaa !3
  %175 = getelementptr inbounds nuw %struct.dh_st, ptr %174, i32 0, i32 2
  %176 = getelementptr inbounds nuw %struct.ffc_params_st, ptr %175, i32 0, i32 3
  %177 = load ptr, ptr %176, align 8, !tbaa !31
  %178 = icmp ne ptr %177, null
  br i1 %178, label %179, label %191

179:                                              ; preds = %173
  %180 = load ptr, ptr %4, align 8, !tbaa !3
  %181 = getelementptr inbounds nuw %struct.dh_st, ptr %180, i32 0, i32 2
  %182 = getelementptr inbounds nuw %struct.ffc_params_st, ptr %181, i32 0, i32 3
  %183 = load ptr, ptr %182, align 8, !tbaa !31
  %184 = load ptr, ptr %10, align 8, !tbaa !12
  %185 = call i32 @BN_cmp(ptr noundef %183, ptr noundef %184)
  %186 = icmp ne i32 %185, 0
  br i1 %186, label %187, label %191

187:                                              ; preds = %179
  %188 = load ptr, ptr %5, align 8, !tbaa !10
  %189 = load i32, ptr %188, align 4, !tbaa !8
  %190 = or i32 %189, 64
  store i32 %190, ptr %188, align 4, !tbaa !8
  br label %191

191:                                              ; preds = %187, %179, %173
  br label %192

192:                                              ; preds = %191, %75
  %193 = load ptr, ptr %4, align 8, !tbaa !3
  %194 = getelementptr inbounds nuw %struct.dh_st, ptr %193, i32 0, i32 2
  %195 = getelementptr inbounds nuw %struct.ffc_params_st, ptr %194, i32 0, i32 0
  %196 = load ptr, ptr %195, align 8, !tbaa !28
  %197 = load ptr, ptr %9, align 8, !tbaa !14
  %198 = call i32 @BN_check_prime(ptr noundef %196, ptr noundef %197, ptr noundef null)
  store i32 %198, ptr %7, align 4, !tbaa !8
  %199 = load i32, ptr %7, align 4, !tbaa !8
  %200 = icmp slt i32 %199, 0
  br i1 %200, label %201, label %202

201:                                              ; preds = %192
  br label %241

202:                                              ; preds = %192
  %203 = load i32, ptr %7, align 4, !tbaa !8
  %204 = icmp ne i32 %203, 0
  br i1 %204, label %209, label %205

205:                                              ; preds = %202
  %206 = load ptr, ptr %5, align 8, !tbaa !10
  %207 = load i32, ptr %206, align 4, !tbaa !8
  %208 = or i32 %207, 1
  store i32 %208, ptr %206, align 4, !tbaa !8
  br label %240

209:                                              ; preds = %202
  %210 = load ptr, ptr %4, align 8, !tbaa !3
  %211 = getelementptr inbounds nuw %struct.dh_st, ptr %210, i32 0, i32 2
  %212 = getelementptr inbounds nuw %struct.ffc_params_st, ptr %211, i32 0, i32 1
  %213 = load ptr, ptr %212, align 8, !tbaa !30
  %214 = icmp eq ptr %213, null
  br i1 %214, label %215, label %239

215:                                              ; preds = %209
  %216 = load ptr, ptr %10, align 8, !tbaa !12
  %217 = load ptr, ptr %4, align 8, !tbaa !3
  %218 = getelementptr inbounds nuw %struct.dh_st, ptr %217, i32 0, i32 2
  %219 = getelementptr inbounds nuw %struct.ffc_params_st, ptr %218, i32 0, i32 0
  %220 = load ptr, ptr %219, align 8, !tbaa !28
  %221 = call i32 @BN_rshift1(ptr noundef %216, ptr noundef %220)
  %222 = icmp ne i32 %221, 0
  br i1 %222, label %224, label %223

223:                                              ; preds = %215
  br label %241

224:                                              ; preds = %215
  %225 = load ptr, ptr %10, align 8, !tbaa !12
  %226 = load ptr, ptr %9, align 8, !tbaa !14
  %227 = call i32 @BN_check_prime(ptr noundef %225, ptr noundef %226, ptr noundef null)
  store i32 %227, ptr %7, align 4, !tbaa !8
  %228 = load i32, ptr %7, align 4, !tbaa !8
  %229 = icmp slt i32 %228, 0
  br i1 %229, label %230, label %231

230:                                              ; preds = %224
  br label %241

231:                                              ; preds = %224
  %232 = load i32, ptr %7, align 4, !tbaa !8
  %233 = icmp ne i32 %232, 0
  br i1 %233, label %238, label %234

234:                                              ; preds = %231
  %235 = load ptr, ptr %5, align 8, !tbaa !10
  %236 = load i32, ptr %235, align 4, !tbaa !8
  %237 = or i32 %236, 2
  store i32 %237, ptr %235, align 4, !tbaa !8
  br label %238

238:                                              ; preds = %234, %231
  br label %239

239:                                              ; preds = %238, %209
  br label %240

240:                                              ; preds = %239, %205
  store i32 1, ptr %6, align 4, !tbaa !8
  br label %241

241:                                              ; preds = %240, %230, %223, %201, %164, %142, %122, %51, %42
  %242 = load ptr, ptr %9, align 8, !tbaa !14
  call void @BN_CTX_end(ptr noundef %242)
  %243 = load ptr, ptr %9, align 8, !tbaa !14
  call void @BN_CTX_free(ptr noundef %243)
  %244 = load i32, ptr %6, align 4, !tbaa !8
  store i32 %244, ptr %3, align 4
  store i32 1, ptr %13, align 4
  br label %245

245:                                              ; preds = %241, %34, %27, %19
  call void @llvm.lifetime.end.p0(i64 4, ptr %12) #3
  call void @llvm.lifetime.end.p0(i64 8, ptr %11) #3
  call void @llvm.lifetime.end.p0(i64 8, ptr %10) #3
  call void @llvm.lifetime.end.p0(i64 8, ptr %9) #3
  call void @llvm.lifetime.end.p0(i64 4, ptr %8) #3
  call void @llvm.lifetime.end.p0(i64 4, ptr %7) #3
  call void @llvm.lifetime.end.p0(i64 4, ptr %6) #3
  %246 = load i32, ptr %3, align 4
  ret i32 %246
}