; Function Attrs: nounwind uwtable
define range(i32 0, 2) i32 @DH_check(ptr noundef %0, ptr noundef captures(none) initializes((0, 4)) %1) local_unnamed_addr #0 {
  %3 = tail call i32 @DH_get_nid(ptr noundef %0) #3
  store i32 0, ptr %1, align 4, !tbaa !3
  %.not = icmp eq i32 %3, 0
  br i1 %.not, label %4, label %89

4:                                                ; preds = %2
  %5 = getelementptr inbounds nuw i8, ptr %0, i64 8
  %6 = load ptr, ptr %5, align 8, !tbaa !21
  %7 = tail call i32 @BN_num_bits(ptr noundef %6) #3
  %8 = icmp sgt i32 %7, 32768
  br i1 %8, label %9, label %10

9:                                                ; preds = %4
  tail call void @ERR_new() #3
  tail call void @ERR_set_debug(ptr noundef nonnull @.str, i32 noundef 157, ptr noundef nonnull @__func__.DH_check) #3
  tail call void (i32, i32, ptr, ...) @ERR_set_error(i32 noundef 5, i32 noundef 103, ptr noundef null) #3
  store i32 257, ptr %1, align 4, !tbaa !3
  br label %89

10:                                               ; preds = %4
  %11 = tail call i32 @DH_check_params(ptr noundef nonnull %0, ptr noundef nonnull %1)
  %.not71 = icmp eq i32 %11, 0
  br i1 %.not71, label %89, label %12

12:                                               ; preds = %10
  %13 = getelementptr inbounds nuw i8, ptr %0, i64 176
  %14 = load ptr, ptr %13, align 8, !tbaa !7
  %15 = tail call ptr @BN_CTX_new_ex(ptr noundef %14) #3
  %16 = icmp eq ptr %15, null
  br i1 %16, label %88, label %17

17:                                               ; preds = %12
  tail call void @BN_CTX_start(ptr noundef nonnull %15) #3
  %18 = tail call ptr @BN_CTX_get(ptr noundef nonnull %15) #3
  %19 = tail call ptr @BN_CTX_get(ptr noundef nonnull %15) #3
  %20 = icmp eq ptr %19, null
  br i1 %20, label %88, label %21

21:                                               ; preds = %17
  %22 = getelementptr inbounds nuw i8, ptr %0, i64 16
  %23 = load ptr, ptr %22, align 8, !tbaa !23
  %.not72 = icmp eq ptr %23, null
  br i1 %.not72, label %.critedge, label %24

24:                                               ; preds = %21
  %25 = load ptr, ptr %5, align 8, !tbaa !21
  %26 = tail call i32 @BN_ucmp(ptr noundef %25, ptr noundef nonnull %23) #3
  %27 = icmp sgt i32 %26, 0
  br i1 %27, label %28, label %.critedge.sink.split

28:                                               ; preds = %24
  %29 = getelementptr inbounds nuw i8, ptr %0, i64 24
  %30 = load ptr, ptr %29, align 8, !tbaa !22
  %31 = tail call ptr @BN_value_one() #3
  %32 = tail call i32 @BN_cmp(ptr noundef %30, ptr noundef %31) #3
  %33 = icmp slt i32 %32, 1
  br i1 %33, label %.sink.split, label %34

34:                                               ; preds = %28
  %35 = load ptr, ptr %29, align 8, !tbaa !22
  %36 = load ptr, ptr %5, align 8, !tbaa !21
  %37 = tail call i32 @BN_cmp(ptr noundef %35, ptr noundef %36) #3
  %38 = icmp sgt i32 %37, -1
  br i1 %38, label %.sink.split, label %39

39:                                               ; preds = %34
  %40 = load ptr, ptr %29, align 8, !tbaa !22
  %41 = load ptr, ptr %22, align 8, !tbaa !23
  %42 = load ptr, ptr %5, align 8, !tbaa !21
  %43 = tail call i32 @BN_mod_exp(ptr noundef %18, ptr noundef %40, ptr noundef %41, ptr noundef %42, ptr noundef nonnull %15) #3
  %.not74 = icmp eq i32 %43, 0
  br i1 %.not74, label %88, label %44

44:                                               ; preds = %39
  %45 = tail call i32 @BN_is_one(ptr noundef %18) #3
  %.not75 = icmp eq i32 %45, 0
  br i1 %.not75, label %.sink.split, label %48

.sink.split:                                      ; preds = %44, %34, %28
  %46 = load i32, ptr %1, align 4, !tbaa !3
  %47 = or i32 %46, 8
  store i32 %47, ptr %1, align 4, !tbaa !3
  br label %48

48:                                               ; preds = %.sink.split, %44
  %49 = load ptr, ptr %22, align 8, !tbaa !23
  %50 = tail call i32 @BN_check_prime(ptr noundef %49, ptr noundef nonnull %15, ptr noundef null) #3
  %51 = icmp slt i32 %50, 0
  br i1 %51, label %88, label %52

52:                                               ; preds = %48
  %.not76 = icmp eq i32 %50, 0
  br i1 %.not76, label %53, label %56

53:                                               ; preds = %52
  %54 = load i32, ptr %1, align 4, !tbaa !3
  %55 = or i32 %54, 16
  store i32 %55, ptr %1, align 4, !tbaa !3
  br label %56

56:                                               ; preds = %53, %52
  %57 = load ptr, ptr %5, align 8, !tbaa !21
  %58 = load ptr, ptr %22, align 8, !tbaa !23
  %59 = tail call i32 @BN_div(ptr noundef %18, ptr noundef nonnull %19, ptr noundef %57, ptr noundef %58, ptr noundef nonnull %15) #3
  %.not77 = icmp eq i32 %59, 0
  br i1 %.not77, label %88, label %60

60:                                               ; preds = %56
  %61 = tail call i32 @BN_is_one(ptr noundef nonnull %19) #3
  %.not78 = icmp eq i32 %61, 0
  br i1 %.not78, label %62, label %65

62:                                               ; preds = %60
  %63 = load i32, ptr %1, align 4, !tbaa !3
  %64 = or i32 %63, 32
  store i32 %64, ptr %1, align 4, !tbaa !3
  br label %65

65:                                               ; preds = %62, %60
  %66 = getelementptr inbounds nuw i8, ptr %0, i64 32
  %67 = load ptr, ptr %66, align 8, !tbaa !24
  %.not79 = icmp eq ptr %67, null
  br i1 %.not79, label %.critedge, label %68

68:                                               ; preds = %65
  %69 = tail call i32 @BN_cmp(ptr noundef nonnull %67, ptr noundef %18) #3
  %.not80 = icmp eq i32 %69, 0
  br i1 %.not80, label %.critedge, label %.critedge.sink.split

.critedge.sink.split:                             ; preds = %68, %24
  %.sink86 = phi i32 [ 32, %24 ], [ 64, %68 ]
  %70 = load i32, ptr %1, align 4, !tbaa !3
  %71 = or i32 %70, %.sink86
  store i32 %71, ptr %1, align 4, !tbaa !3
  br label %.critedge

.critedge:                                        ; preds = %.critedge.sink.split, %21, %65, %68
  %72 = load ptr, ptr %5, align 8, !tbaa !21
  %73 = tail call i32 @BN_check_prime(ptr noundef %72, ptr noundef nonnull %15, ptr noundef null) #3
  %74 = icmp slt i32 %73, 0
  br i1 %74, label %88, label %75

75:                                               ; preds = %.critedge
  %.not81 = icmp eq i32 %73, 0
  br i1 %.not81, label %.sink.split87, label %76

76:                                               ; preds = %75
  %77 = load ptr, ptr %22, align 8, !tbaa !23
  %78 = icmp eq ptr %77, null
  br i1 %78, label %79, label %88

79:                                               ; preds = %76
  %80 = load ptr, ptr %5, align 8, !tbaa !21
  %81 = tail call i32 @BN_rshift1(ptr noundef %18, ptr noundef %80) #3
  %.not82 = icmp eq i32 %81, 0
  br i1 %.not82, label %88, label %82

82:                                               ; preds = %79
  %83 = tail call i32 @BN_check_prime(ptr noundef %18, ptr noundef nonnull %15, ptr noundef null) #3
  %84 = icmp slt i32 %83, 0
  br i1 %84, label %88, label %85

85:                                               ; preds = %82
  %.not83 = icmp eq i32 %83, 0
  br i1 %.not83, label %.sink.split87, label %88

.sink.split87:                                    ; preds = %85, %75
  %.sink89 = phi i32 [ 1, %75 ], [ 2, %85 ]
  %86 = load i32, ptr %1, align 4, !tbaa !3
  %87 = or i32 %86, %.sink89
  store i32 %87, ptr %1, align 4, !tbaa !3
  br label %88

88:                                               ; preds = %.sink.split87, %85, %76, %82, %79, %.critedge, %56, %48, %39, %17, %12
  %.063 = phi i32 [ 0, %12 ], [ 0, %17 ], [ 0, %48 ], [ 0, %.critedge ], [ 0, %82 ], [ 0, %79 ], [ 0, %56 ], [ 0, %39 ], [ 1, %76 ], [ 1, %85 ], [ 1, %.sink.split87 ]
  tail call void @BN_CTX_end(ptr noundef %15) #3
  tail call void @BN_CTX_free(ptr noundef %15) #3
  br label %89

89:                                               ; preds = %10, %2, %88, %9
  %.0 = phi i32 [ 0, %9 ], [ %.063, %88 ], [ 1, %2 ], [ 0, %10 ]
  ret i32 %.0
}